target datalayout = "e-m:e-p270:32:32-p271:32:32-p272:64:64-i64:64-i128:128-f80:128-n8:16:32:64-S128"
target triple = "x86_64-pc-linux-gnu"

%struct._generic_SUNMatrix = type { ptr, ptr, ptr }
%struct._SUNMatrixContent_Sparse = type { i64, i64, i64, i64, ptr, i32, ptr, ptr, ptr, ptr, ptr, ptr }

; Function Attrs: nounwind uwtable
define i32 @SUNSparseMatrix_Realloc(ptr noundef %0) #0 {
  %2 = alloca ptr, align 8
  %3 = alloca i64, align 8
  %4 = alloca ptr, align 8
  store ptr %0, ptr %2, align 8, !tbaa !12
  call void @llvm.lifetime.start.p0(i64 8, ptr %3) #8
  call void @llvm.lifetime.start.p0(i64 8, ptr %4) #8
  %5 = load ptr, ptr %2, align 8, !tbaa !12
  %6 = getelementptr inbounds nuw %struct._generic_SUNMatrix, ptr %5, i32 0, i32 2
  %7 = load ptr, ptr %6, align 8, !tbaa !46
  store ptr %7, ptr %4, align 8, !tbaa !9
  %8 = load ptr, ptr %2, align 8, !tbaa !12
  %9 = getelementptr inbounds nuw %struct._generic_SUNMatrix, ptr %8, i32 0, i32 0
  %10 = load ptr, ptr %9, align 8, !tbaa !29
  %11 = getelementptr inbounds nuw %struct._SUNMatrixContent_Sparse, ptr %10, i32 0, i32 7
  %12 = load ptr, ptr %11, align 8, !tbaa !45
  %13 = load ptr, ptr %2, align 8, !tbaa !12
  %14 = getelementptr inbounds nuw %struct._generic_SUNMatrix, ptr %13, i32 0, i32 0
  %15 = load ptr, ptr %14, align 8, !tbaa !29
  %16 = getelementptr inbounds nuw %struct._SUNMatrixContent_Sparse, ptr %15, i32 0, i32 3
  %17 = load i64, ptr %16, align 8, !tbaa !38
  %18 = getelementptr inbounds i64, ptr %12, i64 %17
  %19 = load i64, ptr %18, align 8, !tbaa !3
  store i64 %19, ptr %3, align 8, !tbaa !3
  %20 = load ptr, ptr %2, align 8, !tbaa !12
  %21 = getelementptr inbounds nuw %struct._generic_SUNMatrix, ptr %20, i32 0, i32 0
  %22 = load ptr, ptr %21, align 8, !tbaa !29
  %23 = getelementptr inbounds nuw %struct._SUNMatrixContent_Sparse, ptr %22, i32 0, i32 6
  %24 = load ptr, ptr %23, align 8, !tbaa !44
  %25 = load i64, ptr %3, align 8, !tbaa !3
  %26 = mul i64 %25, 8
  %27 = call ptr @realloc(ptr noundef %24, i64 noundef %26) #11
  %28 = load ptr, ptr %2, align 8, !tbaa !12
  %29 = getelementptr inbounds nuw %struct._generic_SUNMatrix, ptr %28, i32 0, i32 0
  %30 = load ptr, ptr %29, align 8, !tbaa !29
  %31 = getelementptr inbounds nuw %struct._SUNMatrixContent_Sparse, ptr %30, i32 0, i32 6
  store ptr %27, ptr %31, align 8, !tbaa !44
  %32 = load ptr, ptr %2, align 8, !tbaa !12
  %33 = getelementptr inbounds nuw %struct._generic_SUNMatrix, ptr %32, i32 0, i32 0
  %34 = load ptr, ptr %33, align 8, !tbaa !29
  %35 = getelementptr inbounds nuw %struct._SUNMatrixContent_Sparse, ptr %34, i32 0, i32 4
  %36 = load ptr, ptr %35, align 8, !tbaa !43
  %37 = load i64, ptr %3, align 8, !tbaa !3
  %38 = mul i64 %37, 8
  %39 = call ptr @realloc(ptr noundef %36, i64 noundef %38) #11
  %40 = load ptr, ptr %2, align 8, !tbaa !12
  %41 = getelementptr inbounds nuw %struct._generic_SUNMatrix, ptr %40, i32 0, i32 0
  %42 = load ptr, ptr %41, align 8, !tbaa !29
  %43 = getelementptr inbounds nuw %struct._SUNMatrixContent_Sparse, ptr %42, i32 0, i32 4
  store ptr %39, ptr %43, align 8, !tbaa !43
  %44 = load i64, ptr %3, align 8, !tbaa !3
  %45 = load ptr, ptr %2, align 8, !tbaa !12
  %46 = getelementptr inbounds nuw %struct._generic_SUNMatrix, ptr %45, i32 0, i32 0
  %47 = load ptr, ptr %46, align 8, !tbaa !29
  %48 = getelementptr inbounds nuw %struct._SUNMatrixContent_Sparse, ptr %47, i32 0, i32 2
  store i64 %44, ptr %48, align 8, !tbaa !37
  call void @llvm.lifetime.end.p0(i64 8, ptr %4) #8
  call void @llvm.lifetime.end.p0(i64 8, ptr %3) #8
  ret i32 0
}