; Function Attrs: mustprogress nounwind willreturn uwtable
define noundef i32 @SUNSparseMatrix_Realloc(ptr noundef readonly captures(none) %0) local_unnamed_addr #3 {
  %2 = load ptr, ptr %0, align 8, !tbaa !20
  %3 = getelementptr inbounds nuw i8, ptr %2, i64 56
  %4 = load ptr, ptr %3, align 8, !tbaa !35
  %5 = getelementptr inbounds nuw i8, ptr %2, i64 24
  %6 = load i64, ptr %5, align 8, !tbaa !31
  %7 = getelementptr inbounds i64, ptr %4, i64 %6
  %8 = load i64, ptr %7, align 8, !tbaa !43
  %9 = getelementptr inbounds nuw i8, ptr %2, i64 48
  %10 = load ptr, ptr %9, align 8, !tbaa !34
  %11 = shl i64 %8, 3
  %12 = tail call ptr @realloc(ptr noundef %10, i64 noundef %11) #20
  %13 = load ptr, ptr %0, align 8, !tbaa !20
  %14 = getelementptr inbounds nuw i8, ptr %13, i64 48
  store ptr %12, ptr %14, align 8, !tbaa !34
  %15 = getelementptr inbounds nuw i8, ptr %13, i64 32
  %16 = load ptr, ptr %15, align 8, !tbaa !33
  %17 = tail call ptr @realloc(ptr noundef %16, i64 noundef %11) #20
  %18 = load ptr, ptr %0, align 8, !tbaa !20
  %19 = getelementptr inbounds nuw i8, ptr %18, i64 32
  store ptr %17, ptr %19, align 8, !tbaa !33
  %20 = getelementptr inbounds nuw i8, ptr %18, i64 16
  store i64 %8, ptr %20, align 8, !tbaa !30
  ret i32 0
}